target datalayout = "e-m:e-p270:32:32-p271:32:32-p272:64:64-i64:64-i128:128-f80:128-n8:16:32:64-S128"
target triple = "x86_64-pc-linux-gnu"

%struct.slurm_step_layout = type { ptr, i32, ptr, ptr, ptr, i32, ptr, i16, i16, ptr, i32, i32, ptr }

@.str.12 = private unnamed_addr constant [18 x i8] c"Job step layout:\0A\00", align 1
@.str.13 = private unnamed_addr constant [27 x i8] c"\09%d tasks, %d nodes (%s)\0A\0A\00", align 1
@.str.14 = private unnamed_addr constant [28 x i8] c"\09Node %d (%s), %d task(s): \00", align 1
@.str.15 = private unnamed_addr constant [4 x i8] c"%d \00", align 1
@.str.16 = private unnamed_addr constant [2 x i8] c"\0A\00", align 1

; Function Attrs: nounwind uwtable
define internal void @print_layout_info(ptr noundef %0) #0 {
  %2 = alloca ptr, align 8
  %3 = alloca ptr, align 8
  %4 = alloca i32, align 4
  %5 = alloca i32, align 4
  %6 = alloca ptr, align 8
  store ptr %0, ptr %2, align 8
  call void @llvm.lifetime.start.p0(i64 8, ptr %3) #10
  call void @llvm.lifetime.start.p0(i64 4, ptr %4) #10
  call void @llvm.lifetime.start.p0(i64 4, ptr %5) #10
  %7 = call i32 (ptr, ...) @printf(ptr noundef @.str.12)
  %8 = load ptr, ptr %2, align 8
  %9 = getelementptr inbounds nuw %struct.slurm_step_layout, ptr %8, i32 0, i32 10
  %10 = load i32, ptr %9, align 8
  %11 = load ptr, ptr %2, align 8
  %12 = getelementptr inbounds nuw %struct.slurm_step_layout, ptr %11, i32 0, i32 5
  %13 = load i32, ptr %12, align 8
  %14 = load ptr, ptr %2, align 8
  %15 = getelementptr inbounds nuw %struct.slurm_step_layout, ptr %14, i32 0, i32 6
  %16 = load ptr, ptr %15, align 8
  %17 = call i32 (ptr, ...) @printf(ptr noundef @.str.13, i32 noundef %10, i32 noundef %13, ptr noundef %16)
  %18 = load ptr, ptr %2, align 8
  %19 = getelementptr inbounds nuw %struct.slurm_step_layout, ptr %18, i32 0, i32 6
  %20 = load ptr, ptr %19, align 8
  %21 = call ptr @hostlist_create(ptr noundef %20)
  store ptr %21, ptr %3, align 8
  store i32 0, ptr %4, align 4
  br label %22

22:                                               ; preds = %73, %1
  %23 = load i32, ptr %4, align 4
  %24 = load ptr, ptr %2, align 8
  %25 = getelementptr inbounds nuw %struct.slurm_step_layout, ptr %24, i32 0, i32 5
  %26 = load i32, ptr %25, align 8
  %27 = icmp ult i32 %23, %26
  br i1 %27, label %28, label %76

28:                                               ; preds = %22
  call void @llvm.lifetime.start.p0(i64 8, ptr %6) #10
  %29 = load ptr, ptr %3, align 8
  %30 = load i32, ptr %4, align 4
  %31 = call ptr @hostlist_nth(ptr noundef %29, i32 noundef %30)
  store ptr %31, ptr %6, align 8
  %32 = load i32, ptr %4, align 4
  %33 = load ptr, ptr %6, align 8
  %34 = load ptr, ptr %2, align 8
  %35 = getelementptr inbounds nuw %struct.slurm_step_layout, ptr %34, i32 0, i32 9
  %36 = load ptr, ptr %35, align 8
  %37 = load i32, ptr %4, align 4
  %38 = sext i32 %37 to i64
  %39 = getelementptr inbounds i16, ptr %36, i64 %38
  %40 = load i16, ptr %39, align 2
  %41 = zext i16 %40 to i32
  %42 = call i32 (ptr, ...) @printf(ptr noundef @.str.14, i32 noundef %32, ptr noundef %33, i32 noundef %41)
  store i32 0, ptr %5, align 4
  br label %43

43:                                               ; preds = %67, %28
  %44 = load i32, ptr %5, align 4
  %45 = load ptr, ptr %2, align 8
  %46 = getelementptr inbounds nuw %struct.slurm_step_layout, ptr %45, i32 0, i32 9
  %47 = load ptr, ptr %46, align 8
  %48 = load i32, ptr %4, align 4
  %49 = sext i32 %48 to i64
  %50 = getelementptr inbounds i16, ptr %47, i64 %49
  %51 = load i16, ptr %50, align 2
  %52 = zext i16 %51 to i32
  %53 = icmp slt i32 %44, %52
  br i1 %53, label %54, label %70

54:                                               ; preds = %43
  %55 = load ptr, ptr %2, align 8
  %56 = getelementptr inbounds nuw %struct.slurm_step_layout, ptr %55, i32 0, i32 12
  %57 = load ptr, ptr %56, align 8
  %58 = load i32, ptr %4, align 4
  %59 = sext i32 %58 to i64
  %60 = getelementptr inbounds ptr, ptr %57, i64 %59
  %61 = load ptr, ptr %60, align 8
  %62 = load i32, ptr %5, align 4
  %63 = sext i32 %62 to i64
  %64 = getelementptr inbounds i32, ptr %61, i64 %63
  %65 = load i32, ptr %64, align 4
  %66 = call i32 (ptr, ...) @printf(ptr noundef @.str.15, i32 noundef %65)
  br label %67

67:                                               ; preds = %54
  %68 = load i32, ptr %5, align 4
  %69 = add nsw i32 %68, 1
  store i32 %69, ptr %5, align 4
  br label %43, !llvm.loop !10

70:                                               ; preds = %43
  %71 = call i32 (ptr, ...) @printf(ptr noundef @.str.16)
  %72 = load ptr, ptr %6, align 8
  call void @free(ptr noundef %72) #10
  call void @llvm.lifetime.end.p0(i64 8, ptr %6) #10
  br label %73

73:                                               ; preds = %70
  %74 = load i32, ptr %4, align 4
  %75 = add nsw i32 %74, 1
  store i32 %75, ptr %4, align 4
  br label %22, !llvm.loop !13

76:                                               ; preds = %22
  %77 = load ptr, ptr %3, align 8
  call void @hostlist_destroy(ptr noundef %77)
  call void @llvm.lifetime.end.p0(i64 4, ptr %5) #10
  call void @llvm.lifetime.end.p0(i64 4, ptr %4) #10
  call void @llvm.lifetime.end.p0(i64 8, ptr %3) #10
  ret void
}