; Function Attrs: nounwind uwtable
define internal fastcc void @print_layout_info(ptr noundef nonnull readonly captures(none) %0) unnamed_addr #0 {
  %puts = tail call i32 @puts(ptr nonnull dereferenceable(1) @str)
  %2 = getelementptr inbounds nuw i8, ptr %0, i64 72
  %3 = load i32, ptr %2, align 8
  %4 = getelementptr inbounds nuw i8, ptr %0, i64 40
  %5 = load i32, ptr %4, align 8
  %6 = getelementptr inbounds nuw i8, ptr %0, i64 48
  %7 = load ptr, ptr %6, align 8
  %8 = tail call i32 (ptr, ...) @printf(ptr noundef nonnull dereferenceable(1) @.str.13, i32 noundef %3, i32 noundef %5, ptr noundef %7)
  %9 = load ptr, ptr %6, align 8
  %10 = tail call ptr @hostlist_create(ptr noundef %9) #14
  %11 = load i32, ptr %4, align 8
  %.not = icmp eq i32 %11, 0
  br i1 %.not, label %._crit_edge26, label %.lr.ph25

.lr.ph25:                                         ; preds = %1
  %12 = getelementptr inbounds nuw i8, ptr %0, i64 64
  %13 = getelementptr inbounds nuw i8, ptr %0, i64 80
  br label %14

14:                                               ; preds = %.lr.ph25, %._crit_edge
  %indvars.iv29 = phi i64 [ 0, %.lr.ph25 ], [ %indvars.iv.next30, %._crit_edge ]
  %15 = trunc nuw nsw i64 %indvars.iv29 to i32
  %16 = tail call ptr @hostlist_nth(ptr noundef %10, i32 noundef %15) #14
  %17 = load ptr, ptr %12, align 8
  %18 = getelementptr inbounds nuw i16, ptr %17, i64 %indvars.iv29
  %19 = load i16, ptr %18, align 2
  %20 = zext i16 %19 to i32
  %21 = tail call i32 (ptr, ...) @printf(ptr noundef nonnull dereferenceable(1) @.str.14, i32 noundef %15, ptr noundef %16, i32 noundef %20)
  %22 = load ptr, ptr %12, align 8
  %23 = getelementptr inbounds nuw i16, ptr %22, i64 %indvars.iv29
  %24 = load i16, ptr %23, align 2
  %.not27 = icmp eq i16 %24, 0
  br i1 %.not27, label %._crit_edge, label %.lr.ph

.lr.ph:                                           ; preds = %14, %.lr.ph
  %indvars.iv = phi i64 [ %indvars.iv.next, %.lr.ph ], [ 0, %14 ]
  %25 = load ptr, ptr %13, align 8
  %26 = getelementptr inbounds nuw ptr, ptr %25, i64 %indvars.iv29
  %27 = load ptr, ptr %26, align 8
  %28 = getelementptr inbounds nuw i32, ptr %27, i64 %indvars.iv
  %29 = load i32, ptr %28, align 4
  %30 = tail call i32 (ptr, ...) @printf(ptr noundef nonnull dereferenceable(1) @.str.15, i32 noundef %29)
  %indvars.iv.next = add nuw nsw i64 %indvars.iv, 1
  %31 = load ptr, ptr %12, align 8
  %32 = getelementptr inbounds nuw i16, ptr %31, i64 %indvars.iv29
  %33 = load i16, ptr %32, align 2
  %34 = zext i16 %33 to i64
  %35 = icmp samesign ult i64 %indvars.iv.next, %34
  br i1 %35, label %.lr.ph, label %._crit_edge, !llvm.loop !18

._crit_edge:                                      ; preds = %.lr.ph, %14
  %putchar = tail call i32 @putchar(i32 10)
  tail call void @free(ptr noundef %16) #14
  %indvars.iv.next30 = add nuw nsw i64 %indvars.iv29, 1
  %36 = load i32, ptr %4, align 8
  %37 = zext i32 %36 to i64
  %38 = icmp samesign ult i64 %indvars.iv.next30, %37
  br i1 %38, label %14, label %._crit_edge26, !llvm.loop !19

._crit_edge26:                                    ; preds = %._crit_edge, %1
  tail call void @hostlist_destroy(ptr noundef %10) #14
  ret void
}